target datalayout = "e-m:e-p270:32:32-p271:32:32-p272:64:64-i64:64-i128:128-f80:128-n8:16:32:64-S128"
target triple = "x86_64-pc-linux-gnu"

%struct.IDAMemRec = type { ptr, double, ptr, ptr, i32, double, double, ptr, i32, i32, ptr, ptr, i32, i32, [6 x ptr], [6 x double], [6 x double], [6 x double], [6 x double], [6 x double], ptr, ptr, ptr, ptr, ptr, ptr, ptr, ptr, ptr, ptr, ptr, ptr, ptr, ptr, ptr, ptr, ptr, double, ptr, ptr, i32, i32, i32, i32, i32, i32, i32, i32, double, double, double, i32, double, i32, i32, i32, i32, i32, double, double, double, double, double, double, double, double, double, double, double, double, double, double, double, double, i32, i32, i32, i32, i64, double, double, double, double, double, double, double, double, double, i64, i64, i64, i64, i64, i64, i64, i64, i64, i64, i64, double, i32, i32, i32, i32, i32, ptr, i32, ptr, ptr, ptr, ptr, ptr, ptr, ptr, double, i32, ptr, i32, ptr, ptr, double, double, double, ptr, ptr, ptr, double, double, i32, i32, i64, ptr, i32, [6 x double], [5 x double], [6 x ptr], [6 x ptr] }
%struct.IDALsMemRec = type { i32, i32, i32, ptr, ptr, ptr, ptr, ptr, ptr, ptr, ptr, ptr, ptr, i32, double, double, double, i64, i64, i64, i64, i64, i64, i64, i64, i64, i64, i64, i64, i64, i64, double, i32, ptr, ptr, ptr, ptr, i32, ptr, ptr, ptr, ptr }

; Function Attrs: nounwind uwtable
define i32 @idaLsFree(ptr noundef %0) #0 {
  %2 = alloca i32, align 4
  %3 = alloca ptr, align 8
  %4 = alloca ptr, align 8
  %5 = alloca i32, align 4
  store ptr %0, ptr %3, align 8, !tbaa !11
  call void @llvm.lifetime.start.p0(i64 8, ptr %4) #7
  %6 = load ptr, ptr %3, align 8, !tbaa !11
  %7 = icmp eq ptr %6, null
  br i1 %7, label %8, label %9

8:                                                ; preds = %1
  store i32 0, ptr %2, align 4
  store i32 1, ptr %5, align 4
  br label %74

9:                                                ; preds = %1
  %10 = load ptr, ptr %3, align 8, !tbaa !11
  %11 = getelementptr inbounds nuw %struct.IDAMemRec, ptr %10, i32 0, i32 113
  %12 = load ptr, ptr %11, align 8, !tbaa !75
  %13 = icmp eq ptr %12, null
  br i1 %13, label %14, label %15

14:                                               ; preds = %9
  store i32 0, ptr %2, align 4
  store i32 1, ptr %5, align 4
  br label %74

15:                                               ; preds = %9
  %16 = load ptr, ptr %3, align 8, !tbaa !11
  %17 = getelementptr inbounds nuw %struct.IDAMemRec, ptr %16, i32 0, i32 113
  %18 = load ptr, ptr %17, align 8, !tbaa !75
  store ptr %18, ptr %4, align 8, !tbaa !45
  %19 = load ptr, ptr %4, align 8, !tbaa !45
  %20 = getelementptr inbounds nuw %struct.IDALsMemRec, ptr %19, i32 0, i32 7
  %21 = load ptr, ptr %20, align 8, !tbaa !70
  %22 = icmp ne ptr %21, null
  br i1 %22, label %23, label %29

23:                                               ; preds = %15
  %24 = load ptr, ptr %4, align 8, !tbaa !45
  %25 = getelementptr inbounds nuw %struct.IDALsMemRec, ptr %24, i32 0, i32 7
  %26 = load ptr, ptr %25, align 8, !tbaa !70
  call void @N_VDestroy(ptr noundef %26)
  %27 = load ptr, ptr %4, align 8, !tbaa !45
  %28 = getelementptr inbounds nuw %struct.IDALsMemRec, ptr %27, i32 0, i32 7
  store ptr null, ptr %28, align 8, !tbaa !70
  br label %29

29:                                               ; preds = %23, %15
  %30 = load ptr, ptr %4, align 8, !tbaa !45
  %31 = getelementptr inbounds nuw %struct.IDALsMemRec, ptr %30, i32 0, i32 8
  %32 = load ptr, ptr %31, align 8, !tbaa !71
  %33 = icmp ne ptr %32, null
  br i1 %33, label %34, label %40

34:                                               ; preds = %29
  %35 = load ptr, ptr %4, align 8, !tbaa !45
  %36 = getelementptr inbounds nuw %struct.IDALsMemRec, ptr %35, i32 0, i32 8
  %37 = load ptr, ptr %36, align 8, !tbaa !71
  call void @N_VDestroy(ptr noundef %37)
  %38 = load ptr, ptr %4, align 8, !tbaa !45
  %39 = getelementptr inbounds nuw %struct.IDALsMemRec, ptr %38, i32 0, i32 8
  store ptr null, ptr %39, align 8, !tbaa !71
  br label %40

40:                                               ; preds = %34, %29
  %41 = load ptr, ptr %4, align 8, !tbaa !45
  %42 = getelementptr inbounds nuw %struct.IDALsMemRec, ptr %41, i32 0, i32 9
  %43 = load ptr, ptr %42, align 8, !tbaa !72
  %44 = icmp ne ptr %43, null
  br i1 %44, label %45, label %51

45:                                               ; preds = %40
  %46 = load ptr, ptr %4, align 8, !tbaa !45
  %47 = getelementptr inbounds nuw %struct.IDALsMemRec, ptr %46, i32 0, i32 9
  %48 = load ptr, ptr %47, align 8, !tbaa !72
  call void @N_VDestroy(ptr noundef %48)
  %49 = load ptr, ptr %4, align 8, !tbaa !45
  %50 = getelementptr inbounds nuw %struct.IDALsMemRec, ptr %49, i32 0, i32 9
  store ptr null, ptr %50, align 8, !tbaa !72
  br label %51

51:                                               ; preds = %45, %40
  %52 = load ptr, ptr %4, align 8, !tbaa !45
  %53 = getelementptr inbounds nuw %struct.IDALsMemRec, ptr %52, i32 0, i32 10
  store ptr null, ptr %53, align 8, !tbaa !82
  %54 = load ptr, ptr %4, align 8, !tbaa !45
  %55 = getelementptr inbounds nuw %struct.IDALsMemRec, ptr %54, i32 0, i32 11
  store ptr null, ptr %55, align 8, !tbaa !83
  %56 = load ptr, ptr %4, align 8, !tbaa !45
  %57 = getelementptr inbounds nuw %struct.IDALsMemRec, ptr %56, i32 0, i32 12
  store ptr null, ptr %57, align 8, !tbaa !84
  %58 = load ptr, ptr %4, align 8, !tbaa !45
  %59 = getelementptr inbounds nuw %struct.IDALsMemRec, ptr %58, i32 0, i32 6
  store ptr null, ptr %59, align 8, !tbaa !51
  %60 = load ptr, ptr %4, align 8, !tbaa !45
  %61 = getelementptr inbounds nuw %struct.IDALsMemRec, ptr %60, i32 0, i32 35
  %62 = load ptr, ptr %61, align 8, !tbaa !63
  %63 = icmp ne ptr %62, null
  br i1 %63, label %64, label %70

64:                                               ; preds = %51
  %65 = load ptr, ptr %4, align 8, !tbaa !45
  %66 = getelementptr inbounds nuw %struct.IDALsMemRec, ptr %65, i32 0, i32 35
  %67 = load ptr, ptr %66, align 8, !tbaa !63
  %68 = load ptr, ptr %3, align 8, !tbaa !11
  %69 = call i32 %67(ptr noundef %68)
  br label %70

70:                                               ; preds = %64, %51
  %71 = load ptr, ptr %3, align 8, !tbaa !11
  %72 = getelementptr inbounds nuw %struct.IDAMemRec, ptr %71, i32 0, i32 113
  %73 = load ptr, ptr %72, align 8, !tbaa !75
  call void @free(ptr noundef %73) #7
  store i32 0, ptr %2, align 4
  store i32 1, ptr %5, align 4
  br label %74

74:                                               ; preds = %70, %14, %8
  call void @llvm.lifetime.end.p0(i64 8, ptr %4) #7
  %75 = load i32, ptr %2, align 4
  ret i32 %75
}