; Function Attrs: nounwind uwtable
define noundef i32 @idaLsFree(ptr noundef %0) #0 {
  %2 = icmp eq ptr %0, null
  br i1 %2, label %28, label %3

3:                                                ; preds = %1
  %4 = getelementptr inbounds nuw i8, ptr %0, i64 1048
  %5 = load ptr, ptr %4, align 8, !tbaa !65
  %6 = icmp eq ptr %5, null
  br i1 %6, label %28, label %7

7:                                                ; preds = %3
  %8 = getelementptr inbounds nuw i8, ptr %5, i64 48
  %9 = load ptr, ptr %8, align 8, !tbaa !59
  %.not = icmp eq ptr %9, null
  br i1 %.not, label %11, label %10

10:                                               ; preds = %7
  tail call void @N_VDestroy(ptr noundef nonnull %9) #13
  store ptr null, ptr %8, align 8, !tbaa !59
  br label %11

11:                                               ; preds = %10, %7
  %12 = getelementptr inbounds nuw i8, ptr %5, i64 56
  %13 = load ptr, ptr %12, align 8, !tbaa !60
  %.not25 = icmp eq ptr %13, null
  br i1 %.not25, label %15, label %14

14:                                               ; preds = %11
  tail call void @N_VDestroy(ptr noundef nonnull %13) #13
  store ptr null, ptr %12, align 8, !tbaa !60
  br label %15

15:                                               ; preds = %14, %11
  %16 = getelementptr inbounds nuw i8, ptr %5, i64 64
  %17 = load ptr, ptr %16, align 8, !tbaa !61
  %.not26 = icmp eq ptr %17, null
  br i1 %.not26, label %19, label %18

18:                                               ; preds = %15
  tail call void @N_VDestroy(ptr noundef nonnull %17) #13
  store ptr null, ptr %16, align 8, !tbaa !61
  br label %19

19:                                               ; preds = %18, %15
  %20 = getelementptr inbounds nuw i8, ptr %5, i64 72
  %21 = getelementptr inbounds nuw i8, ptr %5, i64 40
  store ptr null, ptr %21, align 8, !tbaa !43
  %22 = getelementptr inbounds nuw i8, ptr %5, i64 272
  tail call void @llvm.memset.p0.i64(ptr noundef nonnull align 8 dereferenceable(24) %20, i8 0, i64 24, i1 false)
  %23 = load ptr, ptr %22, align 8, !tbaa !87
  %.not27 = icmp eq ptr %23, null
  br i1 %.not27, label %26, label %24

24:                                               ; preds = %19
  %25 = tail call i32 %23(ptr noundef nonnull %0) #13
  br label %26

26:                                               ; preds = %24, %19
  %27 = load ptr, ptr %4, align 8, !tbaa !65
  tail call void @free(ptr noundef %27) #13
  br label %28

28:                                               ; preds = %3, %1, %26
  ret i32 0
}